target datalayout = "e-m:e-p270:32:32-p271:32:32-p272:64:64-i64:64-i128:128-f80:128-n8:16:32:64-S128"
target triple = "x86_64-pc-linux-gnu"

%struct.evhttp_connection = type { %struct.anon, ptr, %struct.event, ptr, i16, ptr, i16, ptr, i64, i64, i32, %struct.timeval, %struct.timeval, %struct.timeval, i32, i32, %struct.timeval, i32, ptr, %struct.evcon_requestq, ptr, ptr, ptr, ptr, %struct.event_callback, ptr, ptr, i32, ptr }
%struct.anon = type { ptr, ptr }
%struct.event = type { %struct.event_callback, %union.anon.1, i32, i16, i16, ptr, %union.anon.3, %struct.timeval }
%union.anon.1 = type { %struct.anon.2 }
%struct.anon.2 = type { ptr, ptr }
%union.anon.3 = type { %struct.anon.4 }
%struct.anon.4 = type { %struct.anon.5, %struct.timeval }
%struct.anon.5 = type { ptr, ptr }
%struct.timeval = type { i64, i64 }
%struct.evcon_requestq = type { ptr, ptr }
%struct.event_callback = type { %struct.anon.0, i16, i8, i8, %union.anon, ptr }
%struct.anon.0 = type { ptr, ptr }
%union.anon = type { ptr }

@event_debug_logging_mask_ = external global i32, align 4
@.str.62 = private unnamed_addr constant [32 x i8] c"%s: illegal connection state %d\00", align 1
@__func__.evhttp_read_cb = private unnamed_addr constant [15 x i8] c"evhttp_read_cb\00", align 1
@.str.63 = private unnamed_addr constant [28 x i8] c"%s: bad header lines on %d\0A\00", align 1
@__func__.evhttp_read_firstline = private unnamed_addr constant [22 x i8] c"evhttp_read_firstline\00", align 1

; Function Attrs: nounwind uwtable
define internal void @evhttp_read_trailer(ptr noundef %0, ptr noundef %1) #0 {
  %3 = alloca ptr, align 8
  %4 = alloca ptr, align 8
  %5 = alloca ptr, align 8
  store ptr %0, ptr %3, align 8
  store ptr %1, ptr %4, align 8
  call void @llvm.lifetime.start.p0(i64 8, ptr %5) #11
  %6 = load ptr, ptr %3, align 8
  %7 = getelementptr inbounds nuw %struct.evhttp_connection, ptr %6, i32 0, i32 1
  %8 = load ptr, ptr %7, align 8
  %9 = call ptr @bufferevent_get_input(ptr noundef %8)
  store ptr %9, ptr %5, align 8
  %10 = load ptr, ptr %4, align 8
  %11 = load ptr, ptr %5, align 8
  %12 = call i32 @evhttp_parse_headers_(ptr noundef %10, ptr noundef %11)
  switch i32 %12, label %22 [
    i32 -1, label %13
    i32 -3, label %13
    i32 1, label %15
    i32 0, label %21
    i32 -2, label %21
  ]

13:                                               ; preds = %2, %2
  %14 = load ptr, ptr %3, align 8
  call void @evhttp_connection_fail_(ptr noundef %14, i32 noundef 5)
  br label %23

15:                                               ; preds = %2
  %16 = load ptr, ptr %3, align 8
  %17 = getelementptr inbounds nuw %struct.evhttp_connection, ptr %16, i32 0, i32 1
  %18 = load ptr, ptr %17, align 8
  %19 = call i32 @bufferevent_disable(ptr noundef %18, i16 noundef signext 2)
  %20 = load ptr, ptr %3, align 8
  call void @evhttp_connection_done(ptr noundef %20)
  br label %23

21:                                               ; preds = %2, %2
  br label %22

22:                                               ; preds = %2, %21
  br label %23

23:                                               ; preds = %22, %15, %13
  call void @llvm.lifetime.end.p0(i64 8, ptr %5) #11
  ret void
}

; Function Attrs: nounwind uwtable
define internal void @evhttp_read_firstline(ptr noundef %0, ptr noundef %1) #0 {
  %3 = alloca ptr, align 8
  %4 = alloca ptr, align 8
  %5 = alloca i32, align 4
  %6 = alloca i32, align 4
  store ptr %0, ptr %3, align 8
  store ptr %1, ptr %4, align 8
  call void @llvm.lifetime.start.p0(i64 4, ptr %5) #11
  %7 = load ptr, ptr %4, align 8
  %8 = load ptr, ptr %3, align 8
  %9 = getelementptr inbounds nuw %struct.evhttp_connection, ptr %8, i32 0, i32 1
  %10 = load ptr, ptr %9, align 8
  %11 = call ptr @bufferevent_get_input(ptr noundef %10)
  %12 = call i32 @evhttp_parse_firstline_(ptr noundef %7, ptr noundef %11)
  store i32 %12, ptr %5, align 4
  %13 = load i32, ptr %5, align 4
  %14 = icmp eq i32 %13, -1
  br i1 %14, label %18, label %15

15:                                               ; preds = %2
  %16 = load i32, ptr %5, align 4
  %17 = icmp eq i32 %16, -3
  br i1 %17, label %18, label %31

18:                                               ; preds = %15, %2
  br label %19

19:                                               ; preds = %18
  %20 = load i32, ptr @event_debug_logging_mask_, align 4
  %21 = icmp ne i32 %20, 0
  br i1 %21, label %22, label %27

22:                                               ; preds = %19
  %23 = load ptr, ptr %3, align 8
  %24 = getelementptr inbounds nuw %struct.evhttp_connection, ptr %23, i32 0, i32 1
  %25 = load ptr, ptr %24, align 8
  %26 = call i32 @bufferevent_getfd(ptr noundef %25)
  call void (ptr, ...) @event_debugx_(ptr noundef @.str.63, ptr noundef @__func__.evhttp_read_firstline, i32 noundef %26)
  br label %27

27:                                               ; preds = %22, %19
  br label %28

28:                                               ; preds = %27
  br label %29

29:                                               ; preds = %28
  %30 = load ptr, ptr %3, align 8
  call void @evhttp_connection_fail_(ptr noundef %30, i32 noundef 2)
  store i32 1, ptr %6, align 4
  br label %41

31:                                               ; preds = %15
  %32 = load i32, ptr %5, align 4
  %33 = icmp eq i32 %32, 0
  br i1 %33, label %34, label %35

34:                                               ; preds = %31
  store i32 1, ptr %6, align 4
  br label %41

35:                                               ; preds = %31
  br label %36

36:                                               ; preds = %35
  %37 = load ptr, ptr %3, align 8
  %38 = getelementptr inbounds nuw %struct.evhttp_connection, ptr %37, i32 0, i32 17
  store i32 4, ptr %38, align 8
  %39 = load ptr, ptr %3, align 8
  %40 = load ptr, ptr %4, align 8
  call void @evhttp_read_header(ptr noundef %39, ptr noundef %40)
  store i32 0, ptr %6, align 4
  br label %41

41:                                               ; preds = %36, %34, %29
  call void @llvm.lifetime.end.p0(i64 4, ptr %5) #11
  %42 = load i32, ptr %6, align 4
  switch i32 %42, label %44 [
    i32 0, label %43
    i32 1, label %43
  ]

43:                                               ; preds = %41, %41
  ret void

44:                                               ; preds = %41
  unreachable
}

; Function Attrs: nounwind uwtable
define internal void @evhttp_read_cb(ptr noundef %0, ptr noundef %1) #0 {
  %3 = alloca ptr, align 8
  %4 = alloca ptr, align 8
  %5 = alloca ptr, align 8
  %6 = alloca ptr, align 8
  store ptr %0, ptr %3, align 8
  store ptr %1, ptr %4, align 8
  call void @llvm.lifetime.start.p0(i64 8, ptr %5) #11
  %7 = load ptr, ptr %4, align 8
  store ptr %7, ptr %5, align 8
  call void @llvm.lifetime.start.p0(i64 8, ptr %6) #11
  %8 = load ptr, ptr %5, align 8
  %9 = getelementptr inbounds nuw %struct.evhttp_connection, ptr %8, i32 0, i32 19
  %10 = getelementptr inbounds nuw %struct.evcon_requestq, ptr %9, i32 0, i32 0
  %11 = load ptr, ptr %10, align 8
  store ptr %11, ptr %6, align 8
  %12 = load ptr, ptr %5, align 8
  %13 = getelementptr inbounds nuw %struct.evhttp_connection, ptr %12, i32 0, i32 25
  %14 = load ptr, ptr %13, align 8
  %15 = load ptr, ptr %5, align 8
  %16 = getelementptr inbounds nuw %struct.evhttp_connection, ptr %15, i32 0, i32 24
  call void @event_deferred_cb_cancel_(ptr noundef %14, ptr noundef %16)
  %17 = load ptr, ptr %5, align 8
  %18 = getelementptr inbounds nuw %struct.evhttp_connection, ptr %17, i32 0, i32 17
  %19 = load i32, ptr %18, align 8
  switch i32 %19, label %35 [
    i32 3, label %20
    i32 4, label %23
    i32 5, label %26
    i32 6, label %29
    i32 2, label %32
    i32 0, label %34
    i32 1, label %34
    i32 7, label %34
  ]

20:                                               ; preds = %2
  %21 = load ptr, ptr %5, align 8
  %22 = load ptr, ptr %6, align 8
  call void @evhttp_read_firstline(ptr noundef %21, ptr noundef %22)
  br label %39

23:                                               ; preds = %2
  %24 = load ptr, ptr %5, align 8
  %25 = load ptr, ptr %6, align 8
  call void @evhttp_read_header(ptr noundef %24, ptr noundef %25)
  br label %39

26:                                               ; preds = %2
  %27 = load ptr, ptr %5, align 8
  %28 = load ptr, ptr %6, align 8
  call void @evhttp_read_body(ptr noundef %27, ptr noundef %28)
  br label %39

29:                                               ; preds = %2
  %30 = load ptr, ptr %5, align 8
  %31 = load ptr, ptr %6, align 8
  call void @evhttp_read_trailer(ptr noundef %30, ptr noundef %31)
  br label %39

32:                                               ; preds = %2
  %33 = load ptr, ptr %5, align 8
  call void @evhttp_connection_reset_(ptr noundef %33, i32 noundef 1)
  br label %39

34:                                               ; preds = %2, %2, %2
  br label %35

35:                                               ; preds = %2, %34
  %36 = load ptr, ptr %5, align 8
  %37 = getelementptr inbounds nuw %struct.evhttp_connection, ptr %36, i32 0, i32 17
  %38 = load i32, ptr %37, align 8
  call void (i32, ptr, ...) @event_errx(i32 noundef 1, ptr noundef @.str.62, ptr noundef @__func__.evhttp_read_cb, i32 noundef %38) #14
  unreachable

39:                                               ; preds = %32, %29, %26, %23, %20
  call void @llvm.lifetime.end.p0(i64 8, ptr %6) #11
  call void @llvm.lifetime.end.p0(i64 8, ptr %5) #11
  ret void
}