; Function Attrs: nounwind uwtable
define internal void @evhttp_read_cb(ptr readnone captures(none) %0, ptr noundef %1) #0 {
  %3 = getelementptr inbounds nuw i8, ptr %1, i64 296
  %4 = load ptr, ptr %3, align 8
  %5 = getelementptr inbounds nuw i8, ptr %1, i64 384
  %6 = load ptr, ptr %5, align 8
  %7 = getelementptr inbounds nuw i8, ptr %1, i64 344
  tail call void @event_deferred_cb_cancel_(ptr noundef %6, ptr noundef nonnull %7) #18
  %8 = getelementptr inbounds nuw i8, ptr %1, i64 280
  %9 = load i32, ptr %8, align 8
  switch i32 %9, label %37 [
    i32 3, label %10
    i32 4, label %25
    i32 5, label %26
    i32 6, label %27
    i32 2, label %36
  ]

10:                                               ; preds = %2
  %11 = getelementptr inbounds nuw i8, ptr %1, i64 16
  %12 = load ptr, ptr %11, align 8
  %13 = tail call ptr @bufferevent_get_input(ptr noundef %12) #18
  %14 = tail call i32 @evhttp_parse_firstline_(ptr noundef %4, ptr noundef %13)
  %15 = and i32 %14, -3
  %or.cond.i = icmp eq i32 %15, -3
  br i1 %or.cond.i, label %16, label %22

16:                                               ; preds = %10
  %17 = load i32, ptr @event_debug_logging_mask_, align 4
  %.not.i = icmp eq i32 %17, 0
  br i1 %.not.i, label %21, label %18

18:                                               ; preds = %16
  %19 = load ptr, ptr %11, align 8
  %20 = tail call i32 @bufferevent_getfd(ptr noundef %19) #18
  tail call void (ptr, ...) @event_debugx_(ptr noundef nonnull @.str.63, ptr noundef nonnull @__func__.evhttp_read_firstline, i32 noundef %20) #18
  br label %21

21:                                               ; preds = %18, %16
  tail call void @evhttp_connection_fail_(ptr noundef nonnull %1, i32 noundef 2)
  br label %evhttp_read_firstline.exit

22:                                               ; preds = %10
  %23 = icmp eq i32 %14, 0
  br i1 %23, label %evhttp_read_firstline.exit, label %24

24:                                               ; preds = %22
  store i32 4, ptr %8, align 8
  tail call fastcc void @evhttp_read_header(ptr noundef nonnull %1, ptr noundef %4)
  br label %evhttp_read_firstline.exit

25:                                               ; preds = %2
  tail call fastcc void @evhttp_read_header(ptr noundef nonnull %1, ptr noundef %4)
  br label %evhttp_read_firstline.exit

26:                                               ; preds = %2
  tail call fastcc void @evhttp_read_body(ptr noundef nonnull %1, ptr noundef %4)
  br label %evhttp_read_firstline.exit

27:                                               ; preds = %2
  %28 = getelementptr inbounds nuw i8, ptr %1, i64 16
  %29 = load ptr, ptr %28, align 8
  %30 = tail call ptr @bufferevent_get_input(ptr noundef %29) #18
  %31 = tail call i32 @evhttp_parse_headers_(ptr noundef %4, ptr noundef %30)
  switch i32 %31, label %evhttp_read_firstline.exit [
    i32 -1, label %32
    i32 -3, label %32
    i32 1, label %33
  ]

32:                                               ; preds = %27, %27
  tail call void @evhttp_connection_fail_(ptr noundef nonnull %1, i32 noundef 5)
  br label %evhttp_read_firstline.exit

33:                                               ; preds = %27
  %34 = load ptr, ptr %28, align 8
  %35 = tail call i32 @bufferevent_disable(ptr noundef %34, i16 noundef signext 2) #18
  tail call fastcc void @evhttp_connection_done(ptr noundef nonnull %1)
  br label %evhttp_read_firstline.exit

36:                                               ; preds = %2
  tail call void @evhttp_connection_reset_(ptr noundef nonnull %1, i32 noundef 1)
  br label %evhttp_read_firstline.exit

37:                                               ; preds = %2
  tail call void (i32, ptr, ...) @event_errx(i32 noundef 1, ptr noundef nonnull @.str.62, ptr noundef nonnull @__func__.evhttp_read_cb, i32 noundef %9) #20
  unreachable

evhttp_read_firstline.exit:                       ; preds = %33, %32, %27, %24, %22, %21, %36, %26, %25
  ret void
}